target datalayout = "e-m:e-p270:32:32-p271:32:32-p272:64:64-i64:64-i128:128-f80:128-n8:16:32:64-S128"
target triple = "x86_64-pc-linux-gnu"

%struct.packet_netlink_data = type { i32, i32, i16 }

@hf_netlink_sock_diag_cookie = internal global i32 0, align 4
@hf_netlink_sock_diag_inet_sport = internal global i32 0, align 4
@hf_netlink_sock_diag_inet_dport = internal global i32 0, align 4
@hf_netlink_sock_diag_inet_src_ip4 = internal global i32 0, align 4
@hf_netlink_sock_diag_inet_dst_ip4 = internal global i32 0, align 4
@hf_netlink_sock_diag_inet_src_ip6 = internal global i32 0, align 4
@hf_netlink_sock_diag_inet_dst_ip6 = internal global i32 0, align 4
@hf_netlink_sock_diag_inet_interface = internal global i32 0, align 4
@.str.172 = private unnamed_addr constant [43 x i8] c"epan/dissectors/packet-netlink-sock_diag.c\00", align 1
@.str.179 = private unnamed_addr constant [55 x i8] c"%s:%u: failed assertion \22DISSECTOR_ASSERT_NOT_REACHED\22\00", align 1

; Function Attrs: null_pointer_is_valid sspstrong uwtable
define internal i32 @_tvb_check_if_zeros(ptr noundef %0, i32 noundef %1, i32 noundef %2) #0 {
  %4 = alloca i32, align 4
  %5 = alloca ptr, align 8
  %6 = alloca i32, align 4
  %7 = alloca i32, align 4
  store ptr %0, ptr %5, align 8
  store i32 %1, ptr %6, align 4
  store i32 %2, ptr %7, align 4
  br label %8

8:                                                ; preds = %18, %3
  %9 = load i32, ptr %7, align 4
  %10 = icmp sge i32 %9, 0
  br i1 %10, label %11, label %23

11:                                               ; preds = %8
  %12 = load ptr, ptr %5, align 8
  %13 = load i32, ptr %6, align 4
  %14 = call zeroext i8 @tvb_get_uint8(ptr noundef %12, i32 noundef %13)
  %15 = zext i8 %14 to i32
  %16 = icmp ne i32 %15, 0
  br i1 %16, label %17, label %18

17:                                               ; preds = %11
  store i32 1, ptr %4, align 4
  br label %24

18:                                               ; preds = %11
  %19 = load i32, ptr %6, align 4
  %20 = add i32 %19, 1
  store i32 %20, ptr %6, align 4
  %21 = load i32, ptr %7, align 4
  %22 = add i32 %21, -1
  store i32 %22, ptr %7, align 4
  br label %8, !llvm.loop !8

23:                                               ; preds = %8
  store i32 0, ptr %4, align 4
  br label %24

24:                                               ; preds = %23, %17
  %25 = load i32, ptr %4, align 4
  ret i32 %25
}

; Function Attrs: null_pointer_is_valid sspstrong uwtable
define internal void @sock_diag_proto_tree_add_cookie(ptr noundef %0, ptr noundef %1, ptr noundef %2, ptr noundef %3, i32 noundef %4) #0 {
  %6 = alloca ptr, align 8
  %7 = alloca ptr, align 8
  %8 = alloca ptr, align 8
  %9 = alloca ptr, align 8
  %10 = alloca i32, align 4
  %11 = alloca i64, align 8
  store ptr %0, ptr %6, align 8
  store ptr %1, ptr %7, align 8
  store ptr %2, ptr %8, align 8
  store ptr %3, ptr %9, align 8
  store i32 %4, ptr %10, align 4
  call void @llvm.lifetime.start.p0(i64 8, ptr %11) #4
  %12 = load ptr, ptr %9, align 8
  %13 = load i32, ptr %10, align 4
  %14 = add i32 %13, 4
  %15 = call i32 @tvb_get_letohl(ptr noundef %12, i32 noundef %14)
  %16 = zext i32 %15 to i64
  store i64 %16, ptr %11, align 8
  %17 = load i64, ptr %11, align 8
  %18 = shl i64 %17, 32
  store i64 %18, ptr %11, align 8
  %19 = load ptr, ptr %9, align 8
  %20 = load i32, ptr %10, align 4
  %21 = call i32 @tvb_get_letohl(ptr noundef %19, i32 noundef %20)
  %22 = zext i32 %21 to i64
  %23 = load i64, ptr %11, align 8
  %24 = or i64 %23, %22
  store i64 %24, ptr %11, align 8
  %25 = load ptr, ptr %6, align 8
  %26 = load i32, ptr @hf_netlink_sock_diag_cookie, align 4
  %27 = load ptr, ptr %9, align 8
  %28 = load i32, ptr %10, align 4
  %29 = load i64, ptr %11, align 8
  %30 = call ptr @proto_tree_add_uint64(ptr noundef %25, i32 noundef %26, ptr noundef %27, i32 noundef %28, i32 noundef 8, i64 noundef %29)
  call void @llvm.lifetime.end.p0(i64 8, ptr %11) #4
  ret void
}

; Function Attrs: null_pointer_is_valid sspstrong uwtable
define internal void @_dissect_padding(ptr noundef %0, ptr noundef %1, i32 noundef %2, i32 noundef %3) #0 {
  %5 = alloca ptr, align 8
  %6 = alloca ptr, align 8
  %7 = alloca i32, align 4
  %8 = alloca i32, align 4
  store ptr %0, ptr %5, align 8
  store ptr %1, ptr %6, align 8
  store i32 %2, ptr %7, align 4
  store i32 %3, ptr %8, align 4
  %9 = load ptr, ptr %6, align 8
  %10 = load i32, ptr %7, align 4
  %11 = load i32, ptr %8, align 4
  %12 = call i32 @_tvb_check_if_zeros(ptr noundef %9, i32 noundef %10, i32 noundef %11)
  %13 = icmp ne i32 %12, 0
  br i1 %13, label %14, label %15

14:                                               ; preds = %4
  br label %15

15:                                               ; preds = %14, %4
  ret void
}

; Function Attrs: null_pointer_is_valid sspstrong uwtable
define internal i32 @dissect_sock_diag_inet_sockid(ptr noundef %0, ptr noundef %1, ptr noundef %2, ptr noundef %3, i32 noundef %4, i32 noundef %5) #0 {
  %7 = alloca ptr, align 8
  %8 = alloca ptr, align 8
  %9 = alloca ptr, align 8
  %10 = alloca ptr, align 8
  %11 = alloca i32, align 4
  %12 = alloca i32, align 4
  store ptr %0, ptr %7, align 8
  store ptr %1, ptr %8, align 8
  store ptr %2, ptr %9, align 8
  store ptr %3, ptr %10, align 8
  store i32 %4, ptr %11, align 4
  store i32 %5, ptr %12, align 4
  %13 = load ptr, ptr %10, align 8
  %14 = load i32, ptr @hf_netlink_sock_diag_inet_sport, align 4
  %15 = load ptr, ptr %7, align 8
  %16 = load i32, ptr %11, align 4
  %17 = call ptr @proto_tree_add_item(ptr noundef %13, i32 noundef %14, ptr noundef %15, i32 noundef %16, i32 noundef 2, i32 noundef 0)
  %18 = load i32, ptr %11, align 4
  %19 = add i32 %18, 2
  store i32 %19, ptr %11, align 4
  %20 = load ptr, ptr %10, align 8
  %21 = load i32, ptr @hf_netlink_sock_diag_inet_dport, align 4
  %22 = load ptr, ptr %7, align 8
  %23 = load i32, ptr %11, align 4
  %24 = call ptr @proto_tree_add_item(ptr noundef %20, i32 noundef %21, ptr noundef %22, i32 noundef %23, i32 noundef 2, i32 noundef 0)
  %25 = load i32, ptr %11, align 4
  %26 = add i32 %25, 2
  store i32 %26, ptr %11, align 4
  %27 = load i32, ptr %12, align 4
  switch i32 %27, label %68 [
    i32 2, label %28
    i32 10, label %53
  ]

28:                                               ; preds = %6
  %29 = load ptr, ptr %10, align 8
  %30 = load i32, ptr @hf_netlink_sock_diag_inet_src_ip4, align 4
  %31 = load ptr, ptr %7, align 8
  %32 = load i32, ptr %11, align 4
  %33 = call ptr @proto_tree_add_item(ptr noundef %29, i32 noundef %30, ptr noundef %31, i32 noundef %32, i32 noundef 4, i32 noundef 0)
  %34 = load i32, ptr %11, align 4
  %35 = add i32 %34, 4
  store i32 %35, ptr %11, align 4
  %36 = load ptr, ptr %10, align 8
  %37 = load ptr, ptr %7, align 8
  %38 = load i32, ptr %11, align 4
  call void @_dissect_padding(ptr noundef %36, ptr noundef %37, i32 noundef %38, i32 noundef 12)
  %39 = load i32, ptr %11, align 4
  %40 = add i32 %39, 12
  store i32 %40, ptr %11, align 4
  %41 = load ptr, ptr %10, align 8
  %42 = load i32, ptr @hf_netlink_sock_diag_inet_dst_ip4, align 4
  %43 = load ptr, ptr %7, align 8
  %44 = load i32, ptr %11, align 4
  %45 = call ptr @proto_tree_add_item(ptr noundef %41, i32 noundef %42, ptr noundef %43, i32 noundef %44, i32 noundef 4, i32 noundef 0)
  %46 = load i32, ptr %11, align 4
  %47 = add i32 %46, 4
  store i32 %47, ptr %11, align 4
  %48 = load ptr, ptr %10, align 8
  %49 = load ptr, ptr %7, align 8
  %50 = load i32, ptr %11, align 4
  call void @_dissect_padding(ptr noundef %48, ptr noundef %49, i32 noundef %50, i32 noundef 12)
  %51 = load i32, ptr %11, align 4
  %52 = add i32 %51, 12
  store i32 %52, ptr %11, align 4
  br label %69

53:                                               ; preds = %6
  %54 = load ptr, ptr %10, align 8
  %55 = load i32, ptr @hf_netlink_sock_diag_inet_src_ip6, align 4
  %56 = load ptr, ptr %7, align 8
  %57 = load i32, ptr %11, align 4
  %58 = call ptr @proto_tree_add_item(ptr noundef %54, i32 noundef %55, ptr noundef %56, i32 noundef %57, i32 noundef 16, i32 noundef 0)
  %59 = load i32, ptr %11, align 4
  %60 = add i32 %59, 16
  store i32 %60, ptr %11, align 4
  %61 = load ptr, ptr %10, align 8
  %62 = load i32, ptr @hf_netlink_sock_diag_inet_dst_ip6, align 4
  %63 = load ptr, ptr %7, align 8
  %64 = load i32, ptr %11, align 4
  %65 = call ptr @proto_tree_add_item(ptr noundef %61, i32 noundef %62, ptr noundef %63, i32 noundef %64, i32 noundef 16, i32 noundef 0)
  %66 = load i32, ptr %11, align 4
  %67 = add i32 %66, 16
  store i32 %67, ptr %11, align 4
  br label %69

68:                                               ; preds = %6
  call void (ptr, ...) @proto_report_dissector_bug(ptr noundef @.str.179, ptr noundef @.str.172, i32 noundef 605) #5
  unreachable

69:                                               ; preds = %53, %28
  %70 = load ptr, ptr %10, align 8
  %71 = load i32, ptr @hf_netlink_sock_diag_inet_interface, align 4
  %72 = load ptr, ptr %7, align 8
  %73 = load i32, ptr %11, align 4
  %74 = load ptr, ptr %9, align 8
  %75 = getelementptr inbounds nuw %struct.packet_netlink_data, ptr %74, i32 0, i32 1
  %76 = load i32, ptr %75, align 4
  %77 = call ptr @proto_tree_add_item(ptr noundef %70, i32 noundef %71, ptr noundef %72, i32 noundef %73, i32 noundef 4, i32 noundef %76)
  %78 = load i32, ptr %11, align 4
  %79 = add i32 %78, 4
  store i32 %79, ptr %11, align 4
  %80 = load ptr, ptr %10, align 8
  %81 = load ptr, ptr %8, align 8
  %82 = load ptr, ptr %9, align 8
  %83 = load ptr, ptr %7, align 8
  %84 = load i32, ptr %11, align 4
  call void @sock_diag_proto_tree_add_cookie(ptr noundef %80, ptr noundef %81, ptr noundef %82, ptr noundef %83, i32 noundef %84)
  %85 = load i32, ptr %11, align 4
  %86 = add i32 %85, 8
  store i32 %86, ptr %11, align 4
  %87 = load i32, ptr %11, align 4
  ret i32 %87
}