; Function Attrs: null_pointer_is_valid sspstrong uwtable
define internal fastcc noundef i32 @dissect_sock_diag_inet_sockid(ptr noundef %0, ptr noundef nonnull readonly captures(none) %1, ptr noundef %2, i32 noundef %3, i32 noundef range(i32 0, 256) %4) unnamed_addr #0 {
  %6 = load i32, ptr @hf_netlink_sock_diag_inet_sport, align 4
  %7 = tail call ptr @proto_tree_add_item(ptr noundef %2, i32 noundef %6, ptr noundef %0, i32 noundef %3, i32 noundef 2, i32 noundef 0)
  %8 = add i32 %3, 2
  %9 = load i32, ptr @hf_netlink_sock_diag_inet_dport, align 4
  %10 = tail call ptr @proto_tree_add_item(ptr noundef %2, i32 noundef %9, ptr noundef %0, i32 noundef %8, i32 noundef 2, i32 noundef 0)
  %11 = add i32 %3, 4
  %trunc = trunc nuw i32 %4 to i8
  switch i8 %trunc, label %36 [
    i8 2, label %12
    i8 10, label %30
  ]

12:                                               ; preds = %5
  %13 = load i32, ptr @hf_netlink_sock_diag_inet_src_ip4, align 4
  %14 = tail call ptr @proto_tree_add_item(ptr noundef %2, i32 noundef %13, ptr noundef %0, i32 noundef %11, i32 noundef 4, i32 noundef 0)
  %15 = add i32 %3, 8
  br label %16

16:                                               ; preds = %18, %12
  %.08.i.i = phi i32 [ 12, %12 ], [ %20, %18 ]
  %.057.i.i = phi i32 [ %15, %12 ], [ %19, %18 ]
  %17 = tail call zeroext i8 @tvb_get_uint8(ptr noundef %0, i32 noundef %.057.i.i)
  %.not.i.i = icmp eq i8 %17, 0
  br i1 %.not.i.i, label %18, label %_dissect_padding.exit

18:                                               ; preds = %16
  %19 = add i32 %.057.i.i, 1
  %20 = add nsw i32 %.08.i.i, -1
  %.not = icmp eq i32 %.08.i.i, 0
  br i1 %.not, label %_dissect_padding.exit, label %16, !llvm.loop !6

_dissect_padding.exit:                            ; preds = %16, %18
  %21 = add i32 %3, 20
  %22 = load i32, ptr @hf_netlink_sock_diag_inet_dst_ip4, align 4
  %23 = tail call ptr @proto_tree_add_item(ptr noundef %2, i32 noundef %22, ptr noundef %0, i32 noundef %21, i32 noundef 4, i32 noundef 0)
  %24 = add i32 %3, 24
  br label %25

25:                                               ; preds = %27, %_dissect_padding.exit
  %.08.i.i44 = phi i32 [ 12, %_dissect_padding.exit ], [ %29, %27 ]
  %.057.i.i45 = phi i32 [ %24, %_dissect_padding.exit ], [ %28, %27 ]
  %26 = tail call zeroext i8 @tvb_get_uint8(ptr noundef %0, i32 noundef %.057.i.i45)
  %.not.i.i46 = icmp eq i8 %26, 0
  br i1 %.not.i.i46, label %27, label %_dissect_padding.exit47

27:                                               ; preds = %25
  %28 = add i32 %.057.i.i45, 1
  %29 = add nsw i32 %.08.i.i44, -1
  %.not1 = icmp eq i32 %.08.i.i44, 0
  br i1 %.not1, label %_dissect_padding.exit47, label %25, !llvm.loop !6

30:                                               ; preds = %5
  %31 = load i32, ptr @hf_netlink_sock_diag_inet_src_ip6, align 4
  %32 = tail call ptr @proto_tree_add_item(ptr noundef %2, i32 noundef %31, ptr noundef %0, i32 noundef %11, i32 noundef 16, i32 noundef 0)
  %33 = add i32 %3, 20
  %34 = load i32, ptr @hf_netlink_sock_diag_inet_dst_ip6, align 4
  %35 = tail call ptr @proto_tree_add_item(ptr noundef %2, i32 noundef %34, ptr noundef %0, i32 noundef %33, i32 noundef 16, i32 noundef 0)
  br label %_dissect_padding.exit47

36:                                               ; preds = %5
  tail call void (ptr, ...) @proto_report_dissector_bug(ptr noundef nonnull @.str.179, ptr noundef nonnull @.str.172, i32 noundef 605) #6
  unreachable

_dissect_padding.exit47:                          ; preds = %27, %25, %30
  %.0 = add i32 %3, 36
  %37 = load i32, ptr @hf_netlink_sock_diag_inet_interface, align 4
  %38 = getelementptr inbounds nuw i8, ptr %1, i64 4
  %39 = load i32, ptr %38, align 4
  %40 = tail call ptr @proto_tree_add_item(ptr noundef %2, i32 noundef %37, ptr noundef %0, i32 noundef %.0, i32 noundef 4, i32 noundef %39)
  %41 = add i32 %3, 40
  %42 = add i32 %3, 44
  %43 = tail call i32 @tvb_get_letohl(ptr noundef %0, i32 noundef %42)
  %44 = zext i32 %43 to i64
  %45 = shl nuw i64 %44, 32
  %46 = tail call i32 @tvb_get_letohl(ptr noundef %0, i32 noundef %41)
  %47 = zext i32 %46 to i64
  %48 = or disjoint i64 %45, %47
  %49 = load i32, ptr @hf_netlink_sock_diag_cookie, align 4
  %50 = tail call ptr @proto_tree_add_uint64(ptr noundef %2, i32 noundef %49, ptr noundef %0, i32 noundef %41, i32 noundef 8, i64 noundef %48)
  %51 = add i32 %3, 48
  ret i32 %51
}